#include <math.h>
#include <stdio.h>
#include <stdlib.h>
#include <string.h>

void main()
{
  int a;
  char c[3000];
  gets(c);
  a=strlen(c);
   int i,b=0;
  if (a==3) printf("3");
  else
  {
   for(i=0;i<a-2;i++)
    {
      if (c[i]!=' ')
       {b=b+1;
       continue;}
      else 
         {
          if (b!=0)
          printf("%d,",b);
          b=0;
          }
   }
   b=0;
   for(i=a-1;i>=0;i--)
     {
       if (c[i]!=' ')
        b=b+1;
       else {printf("%d",b);break;}
      }
   }
}