; ModuleID = 'source-C-CXX/27/1181.c'
source_filename = "source-C-CXX/27/1181.c"
target datalayout = "e-m:e-p270:32:32-p271:32:32-p272:64:64-i64:64-f80:128-n8:16:32:64-S128"
target triple = "x86_64-pc-linux-gnu"

@.str.1 = private unnamed_addr constant [4 x i8] c"%d,\00", align 1
@.str.2 = private unnamed_addr constant [3 x i8] c"%d\00", align 1

; Function Attrs: nounwind sspstrong uwtable
define dso_local void @main() local_unnamed_addr #0 {
  %1 = alloca [3000 x i8], align 16
  %2 = getelementptr inbounds [3000 x i8], [3000 x i8]* %1, i64 0, i64 0
  call void @llvm.lifetime.start.p0i8(i64 3000, i8* nonnull %2) #6
  %3 = call i32 (i8*, ...) bitcast (i32 (...)* @gets to i32 (i8*, ...)*)(i8* nonnull %2) #6
  %4 = call i64 @strlen(i8* noundef nonnull %2) #7
  %5 = trunc i64 %4 to i32
  %6 = icmp eq i32 %5, 3
  br i1 %6, label %12, label %7

7:                                                ; preds = %0
  %8 = icmp sgt i32 %5, 2
  br i1 %8, label %9, label %14

9:                                                ; preds = %7
  %10 = add i64 %4, 4294967294
  %11 = and i64 %10, 4294967295
  br label %16

12:                                               ; preds = %0
  %13 = call i32 @putchar(i32 51)
  br label %45

14:                                               ; preds = %28, %7
  %15 = icmp sgt i32 %5, 0
  br i1 %15, label %32, label %45

16:                                               ; preds = %9, %28
  %17 = phi i64 [ 0, %9 ], [ %30, %28 ]
  %18 = phi i32 [ 0, %9 ], [ %29, %28 ]
  %19 = getelementptr inbounds [3000 x i8], [3000 x i8]* %1, i64 0, i64 %17
  %20 = load i8, i8* %19, align 1, !tbaa !5
  %21 = icmp eq i8 %20, 32
  br i1 %21, label %24, label %22

22:                                               ; preds = %16
  %23 = add nsw i32 %18, 1
  br label %28

24:                                               ; preds = %16
  %25 = icmp eq i32 %18, 0
  br i1 %25, label %28, label %26

26:                                               ; preds = %24
  %27 = call i32 (i8*, ...) @printf(i8* nonnull dereferenceable(1) getelementptr inbounds ([4 x i8], [4 x i8]* @.str.1, i64 0, i64 0), i32 %18)
  br label %28

28:                                               ; preds = %24, %26, %22
  %29 = phi i32 [ %23, %22 ], [ 0, %26 ], [ 0, %24 ]
  %30 = add nuw nsw i64 %17, 1
  %31 = icmp eq i64 %30, %11
  br i1 %31, label %14, label %16, !llvm.loop !8

32:                                               ; preds = %14, %40
  %33 = phi i32 [ %35, %40 ], [ %5, %14 ]
  %34 = phi i32 [ %41, %40 ], [ 0, %14 ]
  %35 = add nsw i32 %33, -1
  %36 = zext i32 %35 to i64
  %37 = getelementptr inbounds [3000 x i8], [3000 x i8]* %1, i64 0, i64 %36
  %38 = load i8, i8* %37, align 1, !tbaa !5
  %39 = icmp eq i8 %38, 32
  br i1 %39, label %43, label %40

40:                                               ; preds = %32
  %41 = add nuw nsw i32 %34, 1
  %42 = icmp eq i32 %41, %5
  br i1 %42, label %45, label %32, !llvm.loop !10

43:                                               ; preds = %32
  %44 = call i32 (i8*, ...) @printf(i8* nonnull dereferenceable(1) getelementptr inbounds ([3 x i8], [3 x i8]* @.str.2, i64 0, i64 0), i32 %34)
  br label %45

45:                                               ; preds = %40, %14, %43, %12
  call void @llvm.lifetime.end.p0i8(i64 3000, i8* nonnull %2) #6
  ret void
}

; Function Attrs: argmemonly mustprogress nofree nosync nounwind willreturn
declare void @llvm.lifetime.start.p0i8(i64 immarg, i8* nocapture) #1

declare i32 @gets(...) local_unnamed_addr #2

; Function Attrs: argmemonly mustprogress nofree nounwind readonly willreturn
declare i64 @strlen(i8* nocapture) local_unnamed_addr #3

; Function Attrs: nofree nounwind
declare noundef i32 @printf(i8* nocapture noundef readonly, ...) local_unnamed_addr #4

; Function Attrs: argmemonly mustprogress nofree nosync nounwind willreturn
declare void @llvm.lifetime.end.p0i8(i64 immarg, i8* nocapture) #1

; Function Attrs: nofree nounwind
declare noundef i32 @putchar(i32 noundef) local_unnamed_addr #5


!llvm.module.flags = !{!0, !1, !2, !3}
!llvm.ident = !{!4}

!0 = !{i32 1, !"wchar_size", i32 4}
!1 = !{i32 7, !"PIC Level", i32 2}
!2 = !{i32 7, !"PIE Level", i32 2}
!3 = !{i32 7, !"uwtable", i32 1}
!4 = !{!"clang version 13.0.0"}
!5 = !{!6, !6, i64 0}
!6 = !{!"omnipotent char", !7, i64 0}
!7 = !{!"Simple C/C++ TBAA"}
!8 = distinct !{!8, !9}
!9 = !{!"llvm.loop.mustprogress"}
!10 = distinct !{!10, !9}
